; Function Attrs: norecurse nounwind uwtable
define internal void @_ZN12SparseMatrixIfE7SolveCGIfEEiRKS0_PKT_iPS4_S4_ibbi.omp_outlined(ptr noalias nocapture noundef readonly %0, ptr noalias nocapture readnone %1, ptr nocapture noundef nonnull readonly align 4 dereferenceable(4) %2, ptr nocapture noundef nonnull readonly align 8 dereferenceable(8) %3, ptr nocapture noundef nonnull readonly align 8 dereferenceable(8) %4, ptr nocapture noundef nonnull readonly align 8 dereferenceable(8) %5, ptr nocapture noundef nonnull align 8 dereferenceable(8) %6) #23 {
  %8 = alloca i32, align 4
  %9 = alloca i32, align 4
  %10 = alloca i32, align 4
  %11 = alloca i32, align 4
  %12 = alloca double, align 8
  %13 = alloca [1 x ptr], align 8
  %14 = load i32, ptr %2, align 4
  %15 = icmp sgt i32 %14, 0
  br i1 %15, label %16, label %49

16:                                               ; preds = %7
  %17 = add nsw i32 %14, -1
  store i32 0, ptr %8, align 4
  store i32 %17, ptr %9, align 4
  store i32 1, ptr %10, align 4
  store i32 0, ptr %11, align 4
  store double 0.000000e+00, ptr %12, align 8
  %18 = load i32, ptr %0, align 4
  call void @__kmpc_for_static_init_4(ptr nonnull @1, i32 %18, i32 34, ptr nonnull %11, ptr nonnull %8, ptr nonnull %9, ptr nonnull %10, i32 1, i32 1)
  %19 = load i32, ptr %9, align 4
  %20 = call i32 @llvm.smin.i32(i32 %19, i32 %17)
  store i32 %20, ptr %9, align 4
  %21 = load i32, ptr %8, align 4
  %.not21 = icmp sgt i32 %21, %20
  br i1 %.not21, label %._crit_edge, label %.lr.ph.preheader

.lr.ph.preheader:                                 ; preds = %16
  %22 = sext i32 %21 to i64
  %.pre = load ptr, ptr %4, align 8
  br label %.lr.ph

.lr.ph:                                           ; preds = %.lr.ph.preheader, %.lr.ph
  %23 = phi double [ 0.000000e+00, %.lr.ph.preheader ], [ %38, %.lr.ph ]
  %24 = phi ptr [ %.pre, %.lr.ph.preheader ], [ %33, %.lr.ph ]
  %indvars.iv = phi i64 [ %22, %.lr.ph.preheader ], [ %indvars.iv.next, %.lr.ph ]
  %25 = load ptr, ptr %5, align 8
  %26 = getelementptr inbounds float, ptr %25, i64 %indvars.iv
  %27 = load float, ptr %26, align 4
  %28 = getelementptr inbounds float, ptr %24, i64 %indvars.iv
  %29 = load float, ptr %28, align 4
  %30 = fsub float %27, %29
  store float %30, ptr %28, align 4
  %31 = load ptr, ptr %3, align 8
  %32 = getelementptr inbounds float, ptr %31, i64 %indvars.iv
  store float %30, ptr %32, align 4
  %33 = load ptr, ptr %4, align 8
  %34 = getelementptr inbounds float, ptr %33, i64 %indvars.iv
  %35 = load float, ptr %34, align 4
  %36 = fmul float %35, %35
  %37 = fpext float %36 to double
  %38 = fadd double %23, %37
  store double %38, ptr %12, align 8
  %indvars.iv.next = add nsw i64 %indvars.iv, 1
  %39 = load i32, ptr %9, align 4
  %40 = sext i32 %39 to i64
  %.not.not = icmp slt i64 %indvars.iv, %40
  br i1 %.not.not, label %.lr.ph, label %._crit_edge

._crit_edge:                                      ; preds = %.lr.ph, %16
  call void @__kmpc_for_static_fini(ptr nonnull @1, i32 %18)
  store ptr %12, ptr %13, align 8
  %41 = call i32 @__kmpc_reduce_nowait(ptr nonnull @3, i32 %18, i32 1, i64 8, ptr nonnull %13, ptr nonnull @_ZN12SparseMatrixIfE7SolveCGIfEEiRKS0_PKT_iPS4_S4_ibbi.omp_outlined.omp.reduction.reduction_func, ptr nonnull @.gomp_critical_user_.reduction.var)
  switch i32 %41, label %49 [
    i32 1, label %42
    i32 2, label %46
  ]

42:                                               ; preds = %._crit_edge
  %43 = load double, ptr %6, align 8
  %44 = load double, ptr %12, align 8
  %45 = fadd double %43, %44
  store double %45, ptr %6, align 8
  call void @__kmpc_end_reduce_nowait(ptr nonnull @3, i32 %18, ptr nonnull @.gomp_critical_user_.reduction.var)
  br label %49

46:                                               ; preds = %._crit_edge
  %47 = load double, ptr %12, align 8
  %48 = atomicrmw fadd ptr %6, double %47 monotonic, align 8
  br label %49

49:                                               ; preds = %._crit_edge, %42, %46, %7
  ret void
}